target datalayout = "e-m:e-p270:32:32-p271:32:32-p272:64:64-i64:64-i128:128-f80:128-n8:16:32:64-S128"
target triple = "x86_64-pc-linux-gnu"

; Function Attrs: nounwind uwtable
define hidden void @EVP_CIPHER_CTX_init(ptr noundef %0) #0 {
  %2 = alloca ptr, align 8
  store ptr %0, ptr %2, align 8, !tbaa !10
  %3 = load ptr, ptr %2, align 8, !tbaa !10
  call void @llvm.memset.p0.i64(ptr align 8 %3, i8 0, i64 152, i1 false)
  ret void
}

; Function Attrs: nounwind uwtable
define hidden i32 @EVP_CipherInit(ptr noundef %0, ptr noundef %1, ptr noundef %2, ptr noundef %3, i32 noundef %4) #0 {
  %6 = alloca ptr, align 8
  %7 = alloca ptr, align 8
  %8 = alloca ptr, align 8
  %9 = alloca ptr, align 8
  %10 = alloca i32, align 4
  store ptr %0, ptr %6, align 8, !tbaa !10
  store ptr %1, ptr %7, align 8, !tbaa !22
  store ptr %2, ptr %8, align 8, !tbaa !25
  store ptr %3, ptr %9, align 8, !tbaa !25
  store i32 %4, ptr %10, align 4, !tbaa !6
  %11 = load ptr, ptr %7, align 8, !tbaa !22
  %12 = icmp ne ptr %11, null
  br i1 %12, label %13, label %15

13:                                               ; preds = %5
  %14 = load ptr, ptr %6, align 8, !tbaa !10
  call void @EVP_CIPHER_CTX_init(ptr noundef %14)
  br label %15

15:                                               ; preds = %13, %5
  %16 = load ptr, ptr %6, align 8, !tbaa !10
  %17 = load ptr, ptr %7, align 8, !tbaa !22
  %18 = load ptr, ptr %8, align 8, !tbaa !25
  %19 = load ptr, ptr %9, align 8, !tbaa !25
  %20 = load i32, ptr %10, align 4, !tbaa !6
  %21 = call i32 @EVP_CipherInit_ex(ptr noundef %16, ptr noundef %17, ptr noundef null, ptr noundef %18, ptr noundef %19, i32 noundef %20)
  ret i32 %21
}

; Function Attrs: nounwind uwtable
define hidden i32 @EVP_EncryptInit(ptr noundef %0, ptr noundef %1, ptr noundef %2, ptr noundef %3) #0 {
  %5 = alloca ptr, align 8
  %6 = alloca ptr, align 8
  %7 = alloca ptr, align 8
  %8 = alloca ptr, align 8
  store ptr %0, ptr %5, align 8, !tbaa !10
  store ptr %1, ptr %6, align 8, !tbaa !22
  store ptr %2, ptr %7, align 8, !tbaa !25
  store ptr %3, ptr %8, align 8, !tbaa !25
  %9 = load ptr, ptr %5, align 8, !tbaa !10
  %10 = load ptr, ptr %6, align 8, !tbaa !22
  %11 = load ptr, ptr %7, align 8, !tbaa !25
  %12 = load ptr, ptr %8, align 8, !tbaa !25
  %13 = call i32 @EVP_CipherInit(ptr noundef %9, ptr noundef %10, ptr noundef %11, ptr noundef %12, i32 noundef 1)
  ret i32 %13
}