; Function Attrs: nounwind uwtable
define hidden range(i32 0, 2) i32 @EVP_EncryptInit(ptr noundef %0, ptr noundef %1, ptr noundef %2, ptr noundef %3) local_unnamed_addr #0 {
  %.not.i = icmp eq ptr %1, null
  br i1 %.not.i, label %EVP_CipherInit.exit, label %.split7.i

.split7.i:                                        ; preds = %4
  tail call void @llvm.memset.p0.i64(ptr noundef nonnull align 8 dereferenceable(152) %0, i8 0, i64 152, i1 false)
  br label %EVP_CipherInit.exit

EVP_CipherInit.exit:                              ; preds = %4, %.split7.i
  %5 = tail call range(i32 0, 2) i32 @EVP_CipherInit_ex(ptr noundef %0, ptr noundef %1, ptr poison, ptr noundef %2, ptr noundef %3, i32 noundef 1)
  ret i32 %5
}